; Function Attrs: nounwind uwtable
define dso_local noundef ptr @getSpGistTupleDesc(ptr noundef readonly captures(none) %0, ptr noundef readonly captures(none) %1) local_unnamed_addr #0 {
  %3 = load i32, ptr %1, align 4
  %4 = getelementptr inbounds nuw i8, ptr %0, i64 64
  %5 = load ptr, ptr %4, align 8
  %6 = load i32, ptr %5, align 8
  %7 = sext i32 %6 to i64
  %8 = shl nsw i64 %7, 4
  %9 = getelementptr i8, ptr %5, i64 %8
  %10 = getelementptr i8, ptr %9, i64 92
  %11 = load i32, ptr %10, align 4
  %12 = icmp eq i32 %3, %11
  br i1 %12, label %43, label %13

13:                                               ; preds = %2
  %14 = tail call ptr @CreateTupleDescCopy(ptr noundef nonnull %5) #10
  %15 = load i32, ptr %14, align 8
  %16 = sext i32 %15 to i64
  %17 = shl nsw i64 %16, 4
  %18 = getelementptr i8, ptr %14, i64 %17
  %19 = load i32, ptr %1, align 4
  %20 = getelementptr i8, ptr %18, i64 92
  store i32 %19, ptr %20, align 4
  %21 = getelementptr i8, ptr %18, i64 100
  store i32 -1, ptr %21, align 4
  %22 = getelementptr inbounds nuw i8, ptr %1, i64 4
  %23 = load i16, ptr %22, align 4
  %24 = getelementptr i8, ptr %18, i64 96
  store i16 %23, ptr %24, align 4
  %25 = getelementptr inbounds nuw i8, ptr %1, i64 6
  %26 = load i8, ptr %25, align 2, !range !7, !noundef !8
  %27 = getelementptr i8, ptr %18, i64 106
  store i8 %26, ptr %27, align 2
  %28 = getelementptr inbounds nuw i8, ptr %1, i64 7
  %29 = load i8, ptr %28, align 1
  %30 = getelementptr i8, ptr %18, i64 107
  store i8 %29, ptr %30, align 1
  %31 = getelementptr inbounds nuw i8, ptr %1, i64 8
  %32 = load i8, ptr %31, align 4
  %33 = getelementptr i8, ptr %18, i64 108
  store i8 %32, ptr %33, align 4
  %34 = getelementptr i8, ptr %18, i64 109
  store i8 0, ptr %34, align 1
  %35 = getelementptr i8, ptr %18, i64 120
  store i32 0, ptr %35, align 4
  %36 = load i32, ptr %14, align 8
  %37 = icmp sgt i32 %36, 1
  br i1 %37, label %.lr.ph, label %._crit_edge

.lr.ph:                                           ; preds = %13
  %38 = getelementptr inbounds nuw i8, ptr %14, i64 24
  %39 = zext nneg i32 %36 to i64
  br label %40

._crit_edge:                                      ; preds = %40, %13
  tail call void @populate_compact_attribute(ptr noundef nonnull %14, i32 noundef 0) #10
  br label %43

40:                                               ; preds = %.lr.ph, %40
  %indvars.iv = phi i64 [ 1, %.lr.ph ], [ %indvars.iv.next, %40 ]
  %41 = getelementptr inbounds nuw [0 x %struct.CompactAttribute], ptr %38, i64 0, i64 %indvars.iv
  store i32 -1, ptr %41, align 4
  %indvars.iv.next = add nuw nsw i64 %indvars.iv, 1
  %42 = icmp samesign ult i64 %indvars.iv.next, %39
  br i1 %42, label %40, label %._crit_edge, !llvm.loop !9

43:                                               ; preds = %2, %._crit_edge
  %.024 = phi ptr [ %14, %._crit_edge ], [ %5, %2 ]
  ret ptr %.024
}